target datalayout = "e-m:e-p270:32:32-p271:32:32-p272:64:64-i64:64-i128:128-f80:128-n8:16:32:64-S128"
target triple = "x86_64-pc-linux-gnu"

%"struct.icu_77::ChineseCalendar::Setting" = type { i32, ptr, ptr, ptr }
%"struct.icu_77::(anonymous namespace)::MonthInfo" = type { i32, i32, i32, i8, i8 }

; Function Attrs: inlinehint mustprogress nounwind uwtable
define internal noundef signext i8 @_ZL9U_FAILURE10UErrorCode(i32 noundef %0) #4 {
  %2 = alloca i32, align 4
  store i32 %0, ptr %2, align 4, !tbaa !30
  %3 = load i32, ptr %2, align 4, !tbaa !30
  %4 = icmp sgt i32 %3, 0
  %5 = zext i1 %4 to i8
  ret i8 %5
}

; Function Attrs: mustprogress uwtable
define noundef i64 @_ZNK6icu_7715ChineseCalendar31handleComputeMonthStartWithLeapEiibR10UErrorCode(ptr noundef nonnull align 8 dereferenceable(193) %0, i32 noundef %1, i32 noundef %2, i1 noundef zeroext %3, ptr noundef nonnull align 4 dereferenceable(4) %4) #0 align 2 {
  %6 = alloca i64, align 8
  %7 = alloca ptr, align 8
  %8 = alloca i32, align 4
  %9 = alloca i32, align 4
  %10 = alloca i8, align 1
  %11 = alloca ptr, align 8
  %12 = alloca %"struct.icu_77::ChineseCalendar::Setting", align 8
  %13 = alloca i32, align 4
  %14 = alloca i32, align 4
  %15 = alloca i32, align 4
  %16 = alloca i32, align 4
  %17 = alloca i32, align 4
  %18 = alloca %"struct.icu_77::(anonymous namespace)::MonthInfo", align 4
  %19 = alloca i32, align 4
  store ptr %0, ptr %7, align 8, !tbaa !3
  store i32 %1, ptr %8, align 4, !tbaa !29
  store i32 %2, ptr %9, align 4, !tbaa !29
  %20 = zext i1 %3 to i8
  store i8 %20, ptr %10, align 1, !tbaa !39
  store ptr %4, ptr %11, align 8, !tbaa !10
  %21 = load ptr, ptr %7, align 8
  %22 = load ptr, ptr %11, align 8, !tbaa !10
  %23 = load i32, ptr %22, align 4, !tbaa !30
  %24 = call noundef signext i8 @_ZL9U_FAILURE10UErrorCode(i32 noundef %23)
  %25 = icmp ne i8 %24, 0
  br i1 %25, label %26, label %27

26:                                               ; preds = %5
  store i64 0, ptr %6, align 8
  br label %140

27:                                               ; preds = %5
  %28 = load i32, ptr %9, align 4, !tbaa !29
  %29 = icmp slt i32 %28, 0
  br i1 %29, label %33, label %30

30:                                               ; preds = %27
  %31 = load i32, ptr %9, align 4, !tbaa !29
  %32 = icmp sgt i32 %31, 11
  br i1 %32, label %33, label %42

33:                                               ; preds = %30, %27
  %34 = load i32, ptr %8, align 4, !tbaa !29
  %35 = load i32, ptr %9, align 4, !tbaa !29
  %36 = call noundef i32 @_ZN6icu_779ClockMath11floorDivideEiiPi(i32 noundef %35, i32 noundef 12, ptr noundef %9)
  %37 = call signext i8 @uprv_add32_overflow_77(i32 noundef %34, i32 noundef %36, ptr noundef %8)
  %38 = icmp ne i8 %37, 0
  br i1 %38, label %39, label %41

39:                                               ; preds = %33
  %40 = load ptr, ptr %11, align 8, !tbaa !10
  store i32 1, ptr %40, align 4, !tbaa !30
  store i64 0, ptr %6, align 8
  br label %140

41:                                               ; preds = %33
  br label %42

42:                                               ; preds = %41, %30
  call void @llvm.lifetime.start.p0(i64 32, ptr %12) #13
  %43 = load ptr, ptr %11, align 8, !tbaa !10
  %44 = load ptr, ptr %21, align 8, !tbaa !11
  %45 = getelementptr inbounds ptr, ptr %44, i64 57
  %46 = load ptr, ptr %45, align 8
  call void %46(ptr dead_on_unwind writable sret(%"struct.icu_77::ChineseCalendar::Setting") align 8 %12, ptr noundef nonnull align 8 dereferenceable(193) %21, ptr noundef nonnull align 4 dereferenceable(4) %43)
  %47 = load ptr, ptr %11, align 8, !tbaa !10
  %48 = load i32, ptr %47, align 4, !tbaa !30
  %49 = call noundef signext i8 @_ZL9U_FAILURE10UErrorCode(i32 noundef %48)
  %50 = icmp ne i8 %49, 0
  br i1 %50, label %51, label %52

51:                                               ; preds = %42
  store i64 0, ptr %6, align 8
  store i32 1, ptr %13, align 4
  br label %139

52:                                               ; preds = %42
  call void @llvm.lifetime.start.p0(i64 4, ptr %14) #13
  %53 = load i32, ptr %8, align 4, !tbaa !29
  %54 = getelementptr inbounds nuw %"struct.icu_77::ChineseCalendar::Setting", ptr %12, i32 0, i32 0
  %55 = load i32, ptr %54, align 8, !tbaa !32
  %56 = sub nsw i32 %55, 1
  %57 = call signext i8 @uprv_add32_overflow_77(i32 noundef %53, i32 noundef %56, ptr noundef %14)
  %58 = icmp ne i8 %57, 0
  br i1 %58, label %59, label %61

59:                                               ; preds = %52
  %60 = load ptr, ptr %11, align 8, !tbaa !10
  store i32 1, ptr %60, align 4, !tbaa !30
  store i64 0, ptr %6, align 8
  store i32 1, ptr %13, align 4
  br label %138

61:                                               ; preds = %52
  call void @llvm.lifetime.start.p0(i64 4, ptr %15) #13
  %62 = load i32, ptr %14, align 4, !tbaa !29
  %63 = load ptr, ptr %11, align 8, !tbaa !10
  %64 = call noundef i32 @_ZN6icu_7712_GLOBAL__N_17newYearERKNS_15ChineseCalendar7SettingEiR10UErrorCode(ptr noundef nonnull align 8 dereferenceable(32) %12, i32 noundef %62, ptr noundef nonnull align 4 dereferenceable(4) %63)
  store i32 %64, ptr %15, align 4, !tbaa !29
  call void @llvm.lifetime.start.p0(i64 4, ptr %16) #13
  %65 = getelementptr inbounds nuw %"struct.icu_77::ChineseCalendar::Setting", ptr %12, i32 0, i32 1
  %66 = load ptr, ptr %65, align 8, !tbaa !42
  %67 = load i32, ptr %15, align 4, !tbaa !29
  %68 = load i32, ptr %9, align 4, !tbaa !29
  %69 = mul nsw i32 %68, 29
  %70 = add nsw i32 %67, %69
  %71 = sitofp i32 %70 to double
  %72 = load ptr, ptr %11, align 8, !tbaa !10
  %73 = call noundef i32 @_ZN6icu_7712_GLOBAL__N_111newMoonNearEPKNS_8TimeZoneEdaR10UErrorCode(ptr noundef %66, double noundef %71, i8 noundef signext 1, ptr noundef nonnull align 4 dereferenceable(4) %72)
  store i32 %73, ptr %16, align 4, !tbaa !29
  %74 = load ptr, ptr %11, align 8, !tbaa !10
  %75 = load i32, ptr %74, align 4, !tbaa !30
  %76 = call noundef signext i8 @_ZL9U_FAILURE10UErrorCode(i32 noundef %75)
  %77 = icmp ne i8 %76, 0
  br i1 %77, label %78, label %79

78:                                               ; preds = %61
  store i64 0, ptr %6, align 8
  store i32 1, ptr %13, align 4
  br label %137

79:                                               ; preds = %61
  call void @llvm.lifetime.start.p0(i64 4, ptr %17) #13
  %80 = load i32, ptr %16, align 4, !tbaa !29
  %81 = load ptr, ptr %11, align 8, !tbaa !10
  %82 = call noundef i32 @_ZN6icu_775Grego9dayToYearEiR10UErrorCode(i32 noundef %80, ptr noundef nonnull align 4 dereferenceable(4) %81)
  store i32 %82, ptr %17, align 4, !tbaa !29
  call void @llvm.lifetime.start.p0(i64 16, ptr %18) #13
  %83 = load i32, ptr %17, align 4, !tbaa !29
  %84 = load i32, ptr %16, align 4, !tbaa !29
  %85 = load ptr, ptr %11, align 8, !tbaa !10
  %86 = call { i64, i64 } @_ZN6icu_7712_GLOBAL__N_116computeMonthInfoERKNS_15ChineseCalendar7SettingEiiR10UErrorCode(ptr noundef nonnull align 8 dereferenceable(32) %12, i32 noundef %83, i32 noundef %84, ptr noundef nonnull align 4 dereferenceable(4) %85)
  %87 = getelementptr inbounds nuw { i64, i64 }, ptr %18, i32 0, i32 0
  %88 = extractvalue { i64, i64 } %86, 0
  store i64 %88, ptr %87, align 4
  %89 = getelementptr inbounds nuw { i64, i64 }, ptr %18, i32 0, i32 1
  %90 = extractvalue { i64, i64 } %86, 1
  store i64 %90, ptr %89, align 4
  %91 = load ptr, ptr %11, align 8, !tbaa !10
  %92 = load i32, ptr %91, align 4, !tbaa !30
  %93 = call noundef signext i8 @_ZL9U_FAILURE10UErrorCode(i32 noundef %92)
  %94 = icmp ne i8 %93, 0
  br i1 %94, label %95, label %96

95:                                               ; preds = %79
  store i64 0, ptr %6, align 8
  store i32 1, ptr %13, align 4
  br label %136

96:                                               ; preds = %79
  %97 = load i32, ptr %9, align 4, !tbaa !29
  %98 = getelementptr inbounds nuw %"struct.icu_77::(anonymous namespace)::MonthInfo", ptr %18, i32 0, i32 0
  %99 = load i32, ptr %98, align 4, !tbaa !43
  %100 = sub nsw i32 %99, 1
  %101 = icmp ne i32 %97, %100
  br i1 %101, label %111, label %102

102:                                              ; preds = %96
  %103 = load i8, ptr %10, align 1, !tbaa !39, !range !40, !noundef !41
  %104 = trunc i8 %103 to i1
  %105 = zext i1 %104 to i32
  %106 = getelementptr inbounds nuw %"struct.icu_77::(anonymous namespace)::MonthInfo", ptr %18, i32 0, i32 3
  %107 = load i8, ptr %106, align 4, !tbaa !45, !range !40, !noundef !41
  %108 = trunc i8 %107 to i1
  %109 = zext i1 %108 to i32
  %110 = icmp ne i32 %105, %109
  br i1 %110, label %111, label %125

111:                                              ; preds = %102, %96
  %112 = getelementptr inbounds nuw %"struct.icu_77::ChineseCalendar::Setting", ptr %12, i32 0, i32 1
  %113 = load ptr, ptr %112, align 8, !tbaa !42
  %114 = load i32, ptr %16, align 4, !tbaa !29
  %115 = add nsw i32 %114, 25
  %116 = sitofp i32 %115 to double
  %117 = load ptr, ptr %11, align 8, !tbaa !10
  %118 = call noundef i32 @_ZN6icu_7712_GLOBAL__N_111newMoonNearEPKNS_8TimeZoneEdaR10UErrorCode(ptr noundef %113, double noundef %116, i8 noundef signext 1, ptr noundef nonnull align 4 dereferenceable(4) %117)
  store i32 %118, ptr %16, align 4, !tbaa !29
  %119 = load ptr, ptr %11, align 8, !tbaa !10
  %120 = load i32, ptr %119, align 4, !tbaa !30
  %121 = call noundef signext i8 @_ZL9U_FAILURE10UErrorCode(i32 noundef %120)
  %122 = icmp ne i8 %121, 0
  br i1 %122, label %123, label %124

123:                                              ; preds = %111
  store i64 0, ptr %6, align 8
  store i32 1, ptr %13, align 4
  br label %136

124:                                              ; preds = %111
  br label %125

125:                                              ; preds = %124, %102
  call void @llvm.lifetime.start.p0(i64 4, ptr %19) #13
  %126 = load i32, ptr %16, align 4, !tbaa !29
  %127 = sub nsw i32 %126, 1
  %128 = call signext i8 @uprv_add32_overflow_77(i32 noundef %127, i32 noundef 2440588, ptr noundef %19)
  %129 = icmp ne i8 %128, 0
  br i1 %129, label %130, label %132

130:                                              ; preds = %125
  %131 = load ptr, ptr %11, align 8, !tbaa !10
  store i32 1, ptr %131, align 4, !tbaa !30
  store i64 0, ptr %6, align 8
  store i32 1, ptr %13, align 4
  br label %135

132:                                              ; preds = %125
  %133 = load i32, ptr %19, align 4, !tbaa !29
  %134 = sext i32 %133 to i64
  store i64 %134, ptr %6, align 8
  store i32 1, ptr %13, align 4
  br label %135

135:                                              ; preds = %132, %130
  call void @llvm.lifetime.end.p0(i64 4, ptr %19) #13
  br label %136

136:                                              ; preds = %135, %123, %95
  call void @llvm.lifetime.end.p0(i64 16, ptr %18) #13
  call void @llvm.lifetime.end.p0(i64 4, ptr %17) #13
  br label %137

137:                                              ; preds = %136, %78
  call void @llvm.lifetime.end.p0(i64 4, ptr %16) #13
  call void @llvm.lifetime.end.p0(i64 4, ptr %15) #13
  br label %138

138:                                              ; preds = %137, %59
  call void @llvm.lifetime.end.p0(i64 4, ptr %14) #13
  br label %139

139:                                              ; preds = %138, %51
  call void @llvm.lifetime.end.p0(i64 32, ptr %12) #13
  br label %140

140:                                              ; preds = %139, %39, %26
  %141 = load i64, ptr %6, align 8
  ret i64 %141
}