; Function Attrs: mustprogress uwtable
define noundef range(i64 -2147483648, 2147483648) i64 @_ZNK6icu_7715ChineseCalendar31handleComputeMonthStartWithLeapEiibR10UErrorCode(ptr noundef nonnull align 8 dereferenceable(193) %0, i32 noundef %1, i32 noundef %2, i1 noundef zeroext %3, ptr noundef nonnull align 4 dereferenceable(4) %4) local_unnamed_addr #0 align 2 {
  %6 = alloca i32, align 4
  %7 = alloca i32, align 4
  %8 = alloca %"struct.icu_77::ChineseCalendar::Setting", align 8
  %9 = alloca i32, align 4
  %10 = alloca i32, align 4
  store i32 %1, ptr %6, align 4, !tbaa !20
  store i32 %2, ptr %7, align 4, !tbaa !20
  %11 = load i32, ptr %4, align 4, !tbaa !21
  %12 = icmp slt i32 %11, 1
  br i1 %12, label %13, label %72

13:                                               ; preds = %5
  %or.cond = icmp ugt i32 %2, 11
  br i1 %or.cond, label %14, label %18

14:                                               ; preds = %13
  %15 = call noundef i32 @_ZN6icu_779ClockMath11floorDivideEiiPi(i32 noundef %2, i32 noundef 12, ptr noundef nonnull %7)
  %16 = call signext i8 @uprv_add32_overflow_77(i32 noundef %1, i32 noundef %15, ptr noundef nonnull %6)
  %.not24 = icmp eq i8 %16, 0
  br i1 %.not24, label %18, label %17

17:                                               ; preds = %14
  store i32 1, ptr %4, align 4, !tbaa !21
  br label %72

18:                                               ; preds = %14, %13
  call void @llvm.lifetime.start.p0(i64 32, ptr nonnull %8) #8
  %19 = load ptr, ptr %0, align 8, !tbaa !3
  %20 = getelementptr inbounds nuw i8, ptr %19, i64 456
  %21 = load ptr, ptr %20, align 8
  call void %21(ptr dead_on_unwind nonnull writable sret(%"struct.icu_77::ChineseCalendar::Setting") align 8 %8, ptr noundef nonnull align 8 dereferenceable(193) %0, ptr noundef nonnull align 4 dereferenceable(4) %4)
  %22 = load i32, ptr %4, align 4, !tbaa !21
  %23 = icmp slt i32 %22, 1
  br i1 %23, label %24, label %71

24:                                               ; preds = %18
  call void @llvm.lifetime.start.p0(i64 4, ptr nonnull %9) #8
  %25 = load i32, ptr %6, align 4, !tbaa !20
  %26 = load i32, ptr %8, align 8, !tbaa !24
  %27 = add nsw i32 %26, -1
  %28 = call signext i8 @uprv_add32_overflow_77(i32 noundef %25, i32 noundef %27, ptr noundef nonnull %9)
  %.not26 = icmp eq i8 %28, 0
  br i1 %.not26, label %30, label %29

29:                                               ; preds = %24
  store i32 1, ptr %4, align 4, !tbaa !21
  br label %70

30:                                               ; preds = %24
  %31 = load i32, ptr %9, align 4, !tbaa !20
  %32 = call fastcc noundef i32 @_ZN6icu_7712_GLOBAL__N_17newYearERKNS_15ChineseCalendar7SettingEiR10UErrorCode(ptr noundef nonnull align 8 dereferenceable(32) %8, i32 noundef %31, ptr noundef nonnull align 4 dereferenceable(4) %4)
  %33 = getelementptr inbounds nuw i8, ptr %8, i64 8
  %34 = load ptr, ptr %33, align 8, !tbaa !28
  %35 = load i32, ptr %7, align 4, !tbaa !20
  %36 = mul nsw i32 %35, 29
  %37 = add nsw i32 %36, %32
  %38 = sitofp i32 %37 to double
  %39 = call fastcc noundef i32 @_ZN6icu_7712_GLOBAL__N_111newMoonNearEPKNS_8TimeZoneEdaR10UErrorCode(ptr noundef %34, double noundef %38, i8 noundef signext 1, ptr noundef nonnull align 4 dereferenceable(4) %4)
  %40 = load i32, ptr %4, align 4, !tbaa !21
  %41 = icmp slt i32 %40, 1
  br i1 %41, label %42, label %70

42:                                               ; preds = %30
  %43 = call noundef i32 @_ZN6icu_775Grego9dayToYearEiR10UErrorCode(i32 noundef %39, ptr noundef nonnull align 4 dereferenceable(4) %4)
  %44 = call fastcc { i64, i64 } @_ZN6icu_7712_GLOBAL__N_116computeMonthInfoERKNS_15ChineseCalendar7SettingEiiR10UErrorCode(ptr noundef nonnull align 8 dereferenceable(32) %8, i32 noundef %43, i32 noundef %39, ptr noundef nonnull align 4 dereferenceable(4) %4)
  %45 = extractvalue { i64, i64 } %44, 1
  %46 = load i32, ptr %4, align 4, !tbaa !21
  %47 = icmp slt i32 %46, 1
  br i1 %47, label %48, label %70

48:                                               ; preds = %42
  %49 = extractvalue { i64, i64 } %44, 0
  %50 = load i32, ptr %7, align 4, !tbaa !20
  %.sroa.0.0.extract.trunc = trunc i64 %49 to i32
  %51 = add nsw i32 %.sroa.0.0.extract.trunc, -1
  %.not29 = icmp eq i32 %50, %51
  br i1 %.not29, label %52, label %55

52:                                               ; preds = %48
  %53 = and i64 %45, 4294967296
  %54 = icmp eq i64 %53, 0
  %.not30 = xor i1 %3, %54
  br i1 %.not30, label %62, label %55

55:                                               ; preds = %52, %48
  %56 = load ptr, ptr %33, align 8, !tbaa !28
  %57 = add nsw i32 %39, 25
  %58 = sitofp i32 %57 to double
  %59 = call fastcc noundef i32 @_ZN6icu_7712_GLOBAL__N_111newMoonNearEPKNS_8TimeZoneEdaR10UErrorCode(ptr noundef %56, double noundef %58, i8 noundef signext 1, ptr noundef nonnull align 4 dereferenceable(4) %4)
  %60 = load i32, ptr %4, align 4, !tbaa !21
  %61 = icmp slt i32 %60, 1
  br i1 %61, label %62, label %70

62:                                               ; preds = %55, %52
  %.023 = phi i32 [ %59, %55 ], [ %39, %52 ]
  call void @llvm.lifetime.start.p0(i64 4, ptr nonnull %10) #8
  %63 = add nsw i32 %.023, -1
  %64 = call signext i8 @uprv_add32_overflow_77(i32 noundef %63, i32 noundef 2440588, ptr noundef nonnull %10)
  %.not32 = icmp eq i8 %64, 0
  br i1 %.not32, label %66, label %65

65:                                               ; preds = %62
  store i32 1, ptr %4, align 4, !tbaa !21
  br label %69

66:                                               ; preds = %62
  %67 = load i32, ptr %10, align 4, !tbaa !20
  %68 = sext i32 %67 to i64
  br label %69

69:                                               ; preds = %66, %65
  %.5 = phi i64 [ 0, %65 ], [ %68, %66 ]
  call void @llvm.lifetime.end.p0(i64 4, ptr nonnull %10) #8
  br label %70

70:                                               ; preds = %30, %55, %42, %69, %29
  %.2 = phi i64 [ 0, %29 ], [ 0, %30 ], [ %.5, %69 ], [ 0, %42 ], [ 0, %55 ]
  call void @llvm.lifetime.end.p0(i64 4, ptr nonnull %9) #8
  br label %71

71:                                               ; preds = %18, %70
  %.1 = phi i64 [ %.2, %70 ], [ 0, %18 ]
  call void @llvm.lifetime.end.p0(i64 32, ptr nonnull %8) #8
  br label %72

72:                                               ; preds = %5, %71, %17
  %.0 = phi i64 [ 0, %17 ], [ %.1, %71 ], [ 0, %5 ]
  ret i64 %.0
}